(dp1
S'output'
p2
S"<type 'exceptions.NameError'> name '_class' is not defined"
p3
sS'layer'
p4
S'/Users/sdv/Development/GitHub/SwedishCrown/web2py/applications/SwedishCrown/models/menu.py'
p5
sS'code'
p6
S'# -*- coding: utf-8 -*-\n# this file is released under public domain and you can use without limitations\n\n#########################################################################\n## Customize your APP title, subtitle and menus here\n#########################################################################\n\nresponse.logo = A(B(SPAN(\'S\'),\'wedish\',SPAN(\'C\'),\'rown \', SPAN(\'CMS\')),XML(\'&trade;&nbsp;\'),\n                  _class="brand",_href=URL(\'default\', \'index\'))\nresponse.title = request.application.replace(\'_\',\' \').title()\nresponse.subtitle = \'\'\n\n## read more at http://dev.w3.org/html5/markup/meta.name.html\nresponse.meta.author = \'Dmitriy Serezhin <sdvinfo@gmail.com>\'\nresponse.meta.description = \'CMS for homeowners association Swedish Crown\'\nresponse.meta.keywords = \'\xd0\xa2\xd0\xa1\xd0\x96, CMS, \xd0\x96\xd0\x9a\xd0\xa5\'\nresponse.meta.generator = \'Web2py Web Framework\'\n\n## your http://google.com/analytics id\nresponse.google_analytics_id = None\n\n#########################################################################\n## this is the main application menu add/remove items as required\n#########################################################################\n\nresponse.menu = [\n    (T(\'About CMS\'), False, URL(\'default\', \'index\'), []),\n    (T(\'HOA information\'), False, URL(\'default\',\'about\'), [\n        (T(\'Common information\'), False, URL(\'default\',\'common_info\'), []),\n        (T(\'Tariff information\'), False, URL(\'default\',\'tariff_info\'), []),\n        (T(\'Management Company\'), False, URL(\'default\',\'management_company_info\'), []),\n        (T(\'Documents\'), False, URL(\'default\', \'documents\'), []),\n        (T(\'Photos\'), False, URL(\'default\', \'photos\'), []),\n    ]),\n    # (T(\'News\'), False, URL(\'default\', \'news\'), []),\n    # (T(\'FAQ\'), False, URL(\'default\', \'faq\'), []),\n    (T(\'Forum\'), False, URL(\'default\',\'forum\'), []),\n    # (T(\'Links\'), False, URL(\'default\', \'links\'), []),\n    (T(\'Personal page\'), False, URL(\'profile\',\'personal_page\'),_class+\'test\'),\n\n]\n\n# if auth.is_logged_in():\n#     response.menu += [\n#         (T(\'Personal page\'), False, URL(\'profile\',\'personal_page\')),\n#     ]\n\n\n\n# if "auth" in locals(): auth.wikimenu()\n'
p7
sS'snapshot'
p8
(dp9
S'exception'
p10
(dp11
S'__hash__'
p12
S"<method-wrapper '__hash__' of exceptions.NameError object>"
p13
sS'__setattr__'
p14
S"<method-wrapper '__setattr__' of exceptions.NameError object>"
p15
sS'__reduce_ex__'
p16
S'<built-in method __reduce_ex__ of exceptions.NameError object>'
p17
sS'__getslice__'
p18
S"<method-wrapper '__getslice__' of exceptions.NameError object>"
p19
sS'__getitem__'
p20
S"<method-wrapper '__getitem__' of exceptions.NameError object>"
p21
sS'__setstate__'
p22
S'<built-in method __setstate__ of exceptions.NameError object>'
p23
sS'args'
p24
S'("name \'_class\' is not defined",)'
p25
sS'__reduce__'
p26
S'<built-in method __reduce__ of exceptions.NameError object>'
p27
sS'__str__'
p28
S"<method-wrapper '__str__' of exceptions.NameError object>"
p29
sS'__format__'
p30
S'<built-in method __format__ of exceptions.NameError object>'
p31
sS'__getattribute__'
p32
S"<method-wrapper '__getattribute__' of exceptions.NameError object>"
p33
sS'__class__'
p34
S"<type 'exceptions.NameError'>"
p35
sS'__unicode__'
p36
S'<built-in method __unicode__ of exceptions.NameError object>'
p37
sS'__delattr__'
p38
S"<method-wrapper '__delattr__' of exceptions.NameError object>"
p39
sS'__subclasshook__'
p40
S'<built-in method __subclasshook__ of type object>'
p41
sS'__repr__'
p42
S"<method-wrapper '__repr__' of exceptions.NameError object>"
p43
sS'__dict__'
p44
S'{}'
p45
sS'__sizeof__'
p46
S'<built-in method __sizeof__ of exceptions.NameError object>'
p47
sS'__doc__'
p48
S"'Name not found globally.'"
p49
sS'__init__'
p50
S"<method-wrapper '__init__' of exceptions.NameError object>"
p51
sS'__new__'
p52
S'<built-in method __new__ of type object>'
p53
ssS'evalue'
p54
S"name '_class' is not defined"
p55
sS'request'
p56
cgluon.html
XML_unpickle
p57
(S's^`\x00\x00<div><table><tr><td style="font-weight:bold;vertical-align:top;">ajax</td><td style="vertical-align:top;">:</td><td><div>False</div></td></tr><tr><td style="font-weight:bold;vertical-align:top;">application</td><td style="vertical-align:top;">:</td><td><div>SwedishCrown</div></td></tr><tr><td style="font-weight:bold;vertical-align:top;">args</td><td style="vertical-align:top;">:</td><td><div><table></table></div></td></tr><tr><td style="font-weight:bold;vertical-align:top;">cid</td><td style="vertical-align:top;">:</td><td><div>None</div></td></tr><tr><td style="font-weight:bold;vertical-align:top;">client</td><td style="vertical-align:top;">:</td><td><div>127.0.0.1</div></td></tr><tr><td style="font-weight:bold;vertical-align:top;">controller</td><td style="vertical-align:top;">:</td><td><div>default</div></td></tr><tr><td style="font-weight:bold;vertical-align:top;">cookies</td><td style="vertical-align:top;">:</td><td><div><table><tr><td style="font-weight:bold;vertical-align:top;">session_id_admin</td><td style="vertical-align:top;">:</td><td><div>127.0.0.1-5f52df3f-6669-4416-a408-48e052e61bcd<table><tr><td style="font-weight:bold;vertical-align:top;">comment</td><td style="vertical-align:top;">:</td><td><div></div></td></tr><tr><td style="font-weight:bold;vertical-align:top;">domain</td><td style="vertical-align:top;">:</td><td><div></div></td></tr><tr><td style="font-weight:bold;vertical-align:top;">expires</td><td style="vertical-align:top;">:</td><td><div></div></td></tr><tr><td style="font-weight:bold;vertical-align:top;">httponly</td><td style="vertical-align:top;">:</td><td><div></div></td></tr><tr><td style="font-weight:bold;vertical-align:top;">max-age</td><td style="vertical-align:top;">:</td><td><div></div></td></tr><tr><td style="font-weight:bold;vertical-align:top;">path</td><td style="vertical-align:top;">:</td><td><div></div></td></tr><tr><td style="font-weight:bold;vertical-align:top;">secure</td><td style="vertical-align:top;">:</td><td><div></div></td></tr><tr><td style="font-weight:bold;vertical-align:top;">version</td><td style="vertical-align:top;">:</td><td><div></div></td></tr></table></div></td></tr><tr><td style="font-weight:bold;vertical-align:top;">session_id_flashyweb</td><td style="vertical-align:top;">:</td><td><div>127.0.0.1-4c9f4ae3-b21e-479b-a5f5-e2131771f8f5<table><tr><td style="font-weight:bold;vertical-align:top;">comment</td><td style="vertical-align:top;">:</td><td><div></div></td></tr><tr><td style="font-weight:bold;vertical-align:top;">domain</td><td style="vertical-align:top;">:</td><td><div></div></td></tr><tr><td style="font-weight:bold;vertical-align:top;">expires</td><td style="vertical-align:top;">:</td><td><div></div></td></tr><tr><td style="font-weight:bold;vertical-align:top;">httponly</td><td style="vertical-align:top;">:</td><td><div></div></td></tr><tr><td style="font-weight:bold;vertical-align:top;">max-age</td><td style="vertical-align:top;">:</td><td><div></div></td></tr><tr><td style="font-weight:bold;vertical-align:top;">path</td><td style="vertical-align:top;">:</td><td><div></div></td></tr><tr><td style="font-weight:bold;vertical-align:top;">secure</td><td style="vertical-align:top;">:</td><td><div></div></td></tr><tr><td style="font-weight:bold;vertical-align:top;">version</td><td style="vertical-align:top;">:</td><td><div></div></td></tr></table></div></td></tr><tr><td style="font-weight:bold;vertical-align:top;">session_id_swedishcrown</td><td style="vertical-align:top;">:</td><td><div>127.0.0.1-08766544-16ba-49b2-bf13-d6166817b3d8<table><tr><td style="font-weight:bold;vertical-align:top;">comment</td><td style="vertical-align:top;">:</td><td><div></div></td></tr><tr><td style="font-weight:bold;vertical-align:top;">domain</td><td style="vertical-align:top;">:</td><td><div></div></td></tr><tr><td style="font-weight:bold;vertical-align:top;">expires</td><td style="vertical-align:top;">:</td><td><div></div></td></tr><tr><td style="font-weight:bold;vertical-align:top;">httponly</td><td style="vertical-align:top;">:</td><td><div></div></td></tr><tr><td style="font-weight:bold;vertical-align:top;">max-age</td><td style="vertical-align:top;">:</td><td><div></div></td></tr><tr><td style="font-weight:bold;vertical-align:top;">path</td><td style="vertical-align:top;">:</td><td><div></div></td></tr><tr><td style="font-weight:bold;vertical-align:top;">secure</td><td style="vertical-align:top;">:</td><td><div></div></td></tr><tr><td style="font-weight:bold;vertical-align:top;">version</td><td style="vertical-align:top;">:</td><td><div></div></td></tr></table></div></td></tr><tr><td style="font-weight:bold;vertical-align:top;">session_id_welcome</td><td style="vertical-align:top;">:</td><td><div>127.0.0.1-3c7d7c85-8cfb-4168-9448-45e7f01449cd<table><tr><td style="font-weight:bold;vertical-align:top;">comment</td><td style="vertical-align:top;">:</td><td><div></div></td></tr><tr><td style="font-weight:bold;vertical-align:top;">domain</td><td style="vertical-align:top;">:</td><td><div></div></td></tr><tr><td style="font-weight:bold;vertical-align:top;">expires</td><td style="vertical-align:top;">:</td><td><div></div></td></tr><tr><td style="font-weight:bold;vertical-align:top;">httponly</td><td style="vertical-align:top;">:</td><td><div></div></td></tr><tr><td style="font-weight:bold;vertical-align:top;">max-age</td><td style="vertical-align:top;">:</td><td><div></div></td></tr><tr><td style="font-weight:bold;vertical-align:top;">path</td><td style="vertical-align:top;">:</td><td><div></div></td></tr><tr><td style="font-weight:bold;vertical-align:top;">secure</td><td style="vertical-align:top;">:</td><td><div></div></td></tr><tr><td style="font-weight:bold;vertical-align:top;">version</td><td style="vertical-align:top;">:</td><td><div></div></td></tr></table></div></td></tr></table></div></td></tr><tr><td style="font-weight:bold;vertical-align:top;">env</td><td style="vertical-align:top;">:</td><td><div><table><tr><td style="font-weight:bold;vertical-align:top;">HTTP_ACCEPT</td><td style="vertical-align:top;">:</td><td><div>text/html,application/xhtml+xml,application/xml;q=0.9,*/*;q=0.8</div></td></tr><tr><td style="font-weight:bold;vertical-align:top;">HTTP_ACCEPT_ENCODING</td><td style="vertical-align:top;">:</td><td><div>gzip, deflate</div></td></tr><tr><td style="font-weight:bold;vertical-align:top;">HTTP_ACCEPT_LANGUAGE</td><td style="vertical-align:top;">:</td><td><div>ru-ru,ru;q=0.8,en-us;q=0.5,en;q=0.3</div></td></tr><tr><td style="font-weight:bold;vertical-align:top;">HTTP_CONNECTION</td><td style="vertical-align:top;">:</td><td><div>keep-alive</div></td></tr><tr><td style="font-weight:bold;vertical-align:top;">HTTP_COOKIE</td><td style="vertical-align:top;">:</td><td><div>session_id_welcome=127.0.0.1-3c7d7c85-8cfb-4168-9448-45e7f01449cd; session_id_admin=127.0.0.1-5f52df3f-6669-4416-a408-48e052e61bcd; session_id_swedishcrown=127.0.0.1-08766544-16ba-49b2-bf13-d6166817b3d8; session_id_flashyweb=127.0.0.1-4c9f4ae3-b21e-479b-a5f5-e2131771f8f5</div></td></tr><tr><td style="font-weight:bold;vertical-align:top;">HTTP_HOST</td><td style="vertical-align:top;">:</td><td><div>127.0.0.1:8000</div></td></tr><tr><td style="font-weight:bold;vertical-align:top;">HTTP_REFERER</td><td style="vertical-align:top;">:</td><td><div>http://127.0.0.1:8000/SwedishCrown/profile/personal_page</div></td></tr><tr><td style="font-weight:bold;vertical-align:top;">HTTP_USER_AGENT</td><td style="vertical-align:top;">:</td><td><div>Mozilla/5.0 (Macintosh; Intel Mac OS X 10.8; rv:15.0) Gecko/20100101 Firefox/15.0.1</div></td></tr><tr><td style="font-weight:bold;vertical-align:top;">PATH_INFO</td><td style="vertical-align:top;">:</td><td><div>/SwedishCrown/default/index</div></td></tr><tr><td style="font-weight:bold;vertical-align:top;">QUERY_STRING</td><td style="vertical-align:top;">:</td><td><div></div></td></tr><tr><td style="font-weight:bold;vertical-align:top;">REMOTE_ADDR</td><td style="vertical-align:top;">:</td><td><div>127.0.0.1</div></td></tr><tr><td style="font-weight:bold;vertical-align:top;">REMOTE_PORT</td><td style="vertical-align:top;">:</td><td><div>60583</div></td></tr><tr><td style="font-weight:bold;vertical-align:top;">REQUEST_METHOD</td><td style="vertical-align:top;">:</td><td><div>GET</div></td></tr><tr><td style="font-weight:bold;vertical-align:top;">SCRIPT_NAME</td><td style="vertical-align:top;">:</td><td><div></div></td></tr><tr><td style="font-weight:bold;vertical-align:top;">SERVER_NAME</td><td style="vertical-align:top;">:</td><td><div>macbook13-sdv.lan</div></td></tr><tr><td style="font-weight:bold;vertical-align:top;">SERVER_PORT</td><td style="vertical-align:top;">:</td><td><div>8000</div></td></tr><tr><td style="font-weight:bold;vertical-align:top;">SERVER_PROTOCOL</td><td style="vertical-align:top;">:</td><td><div>HTTP/1.1</div></td></tr><tr><td style="font-weight:bold;vertical-align:top;">SERVER_SOFTWARE</td><td style="vertical-align:top;">:</td><td><div>Rocket 1.2.6</div></td></tr><tr><td style="font-weight:bold;vertical-align:top;">app_folders</td><td style="vertical-align:top;">:</td><td><div>set([&#x27;/Users/sdv/Development/GitHub/SwedishCrown/web2py/applications/welcome/&#x27;, &#x27;/Users/sdv/Development/GitHub/SwedishCrown/web2py/applications/SwedishCrown/&#x27;])</div></td></tr><tr><td style="font-weight:bold;vertical-align:top;">applications_parent</td><td style="vertical-align:top;">:</td><td><div>/Users/sdv/Development/GitHub/SwedishCrown/web2py</div></td></tr><tr><td style="font-weight:bold;vertical-align:top;">cmd_args</td><td style="vertical-align:top;">:</td><td><div><table></table></div></td></tr><tr><td style="font-weight:bold;vertical-align:top;">cmd_options</td><td style="vertical-align:top;">:</td><td><div>&lt;Values at 0x1020b6680: {&#x27;verbose&#x27;: False, &#x27;ip&#x27;: &#x27;127.0.0.1&#x27;, &#x27;debuglevel&#x27;: 30, &#x27;with_scheduler&#x27;: False, &#x27;ips&#x27;: [&#x27;192.168.0.251&#x27;], &#x27;shutdown_timeout&#x27;: 5, &#x27;taskbar&#x27;: False, &#x27;with_coverage&#x27;: False, &#x27;port&#x27;: 8000, &#x27;maxthreads&#x27;: None, &#x27;softcron&#x27;: False, &#x27;server_name&#x27;: &#x27;macbook13-sdv.lan&#x27;, &#x27;bpython&#x27;: False, &#x27;nogui&#x27;: False, &#x27;pid_filename&#x27;: &#x27;httpserver.pid&#x27;, &#x27;extcron&#x27;: False, &#x27;runcron&#x27;: False, &#x27;run_system_tests&#x27;: False, &#x27;test&#x27;: None, &#x27;folder&#x27;: &#x27;/Users/sdv/Development/GitHub/SwedishCrown/web2py&#x27;, &#x27;config&#x27;: &#x27;&#x27;, &#x27;minthreads&#x27;: None, &#x27;shell&#x27;: None, &#x27;run&#x27;: &#x27;&#x27;, &#x27;log_filename&#x27;: &#x27;httpserver.log&#x27;, &#x27;profiler_dir&#x27;: None, &#x27;args&#x27;: [&#x27;&#x27;], &#x27;socket_timeout&#x27;: 5, &#x27;ssl_ca_certificate&#x27;: None, &#x27;scheduler&#x27;: None, &#x27;interfaces&#x27;: None, &#x27;ssl_private_key&#x27;: &#x27;&#x27;, &#x27;scheduler_groups&#x27;: None, &#x27;password&#x27;: &#x27;&lt;ask&gt;&#x27;, &#x27;request_queue_size&#x27;: 5, &#x27;ssl_certificate&#x27;: &#x27;&#x27;, &#x27;cronjob&#x27;: False, &#x27;numthreads&#x27;: None, &#x27;quiet&#x27;: False, &#x27;import_models&#x27;: False, &#x27;timeout&#x27;: 10, &#x27;plain&#x27;: False, &#x27;nobanner&#x27;: False}&gt;</div></td></tr><tr><td style="font-weight:bold;vertical-align:top;">db_sessions</td><td style="vertical-align:top;">:</td><td><div>set([])</div></td></tr><tr><td style="font-weight:bold;vertical-align:top;">debugging</td><td style="vertical-align:top;">:</td><td><div>False</div></td></tr><tr><td style="font-weight:bold;vertical-align:top;">gluon_parent</td><td style="vertical-align:top;">:</td><td><div>/Users/sdv/Development/GitHub/SwedishCrown/web2py</div></td></tr><tr><td style="font-weight:bold;vertical-align:top;">http_accept</td><td style="vertical-align:top;">:</td><td><div>text/html,application/xhtml+xml,application/xml;q=0.9,*/*;q=0.8</div></td></tr><tr><td style="font-weight:bold;vertical-align:top;">http_accept_encoding</td><td style="vertical-align:top;">:</td><td><div>gzip, deflate</div></td></tr><tr><td style="font-weight:bold;vertical-align:top;">http_accept_language</td><td style="vertical-align:top;">:</td><td><div>ru-ru,ru;q=0.8,en-us;q=0.5,en;q=0.3</div></td></tr><tr><td style="font-weight:bold;vertical-align:top;">http_connection</td><td style="vertical-align:top;">:</td><td><div>keep-alive</div></td></tr><tr><td style="font-weight:bold;vertical-align:top;">http_cookie</td><td style="vertical-align:top;">:</td><td><div>session_id_welcome=127.0.0.1-3c7d7c85-8cfb-4168-9448-45e7f01449cd; session_id_admin=127.0.0.1-5f52df3f-6669-4416-a408-48e052e61bcd; session_id_swedishcrown=127.0.0.1-08766544-16ba-49b2-bf13-d6166817b3d8; session_id_flashyweb=127.0.0.1-4c9f4ae3-b21e-479b-a5f5-e2131771f8f5</div></td></tr><tr><td style="font-weight:bold;vertical-align:top;">http_host</td><td style="vertical-align:top;">:</td><td><div>127.0.0.1:8000</div></td></tr><tr><td style="font-weight:bold;vertical-align:top;">http_referer</td><td style="vertical-align:top;">:</td><td><div>http://127.0.0.1:8000/SwedishCrown/profile/personal_page</div></td></tr><tr><td style="font-weight:bold;vertical-align:top;">http_user_agent</td><td style="vertical-align:top;">:</td><td><div>Mozilla/5.0 (Macintosh; Intel Mac OS X 10.8; rv:15.0) Gecko/20100101 Firefox/15.0.1</div></td></tr><tr><td style="font-weight:bold;vertical-align:top;">is_jython</td><td style="vertical-align:top;">:</td><td><div>False</div></td></tr><tr><td style="font-weight:bold;vertical-align:top;">is_pypy</td><td style="vertical-align:top;">:</td><td><div>False</div></td></tr><tr><td style="font-weight:bold;vertical-align:top;">is_source</td><td style="vertical-align:top;">:</td><td><div>True</div></td></tr><tr><td style="font-weight:bold;vertical-align:top;">local_hosts</td><td style="vertical-align:top;">:</td><td><div><table><tr><td><div>macbook13-sdv.lan</div></td></tr><tr><td><div>192.168.0.251</div></td></tr><tr><td><div>::1</div></td></tr><tr><td><div>::ffff:127.0.0.1</div></td></tr><tr><td><div>127.0.0.1</div></td></tr></table></div></td></tr><tr><td style="font-weight:bold;vertical-align:top;">path_info</td><td style="vertical-align:top;">:</td><td><div>/SwedishCrown/default/index</div></td></tr><tr><td style="font-weight:bold;vertical-align:top;">query_string</td><td style="vertical-align:top;">:</td><td><div></div></td></tr><tr><td style="font-weight:bold;vertical-align:top;">remote_addr</td><td style="vertical-align:top;">:</td><td><div>127.0.0.1</div></td></tr><tr><td style="font-weight:bold;vertical-align:top;">remote_port</td><td style="vertical-align:top;">:</td><td><div>60583</div></td></tr><tr><td style="font-weight:bold;vertical-align:top;">request_method</td><td style="vertical-align:top;">:</td><td><div>GET</div></td></tr><tr><td style="font-weight:bold;vertical-align:top;">request_uri</td><td style="vertical-align:top;">:</td><td><div>/SwedishCrown/default/index</div></td></tr><tr><td style="font-weight:bold;vertical-align:top;">script_name</td><td style="vertical-align:top;">:</td><td><div></div></td></tr><tr><td style="font-weight:bold;vertical-align:top;">server_name</td><td style="vertical-align:top;">:</td><td><div>macbook13-sdv.lan</div></td></tr><tr><td style="font-weight:bold;vertical-align:top;">server_port</td><td style="vertical-align:top;">:</td><td><div>8000</div></td></tr><tr><td style="font-weight:bold;vertical-align:top;">server_protocol</td><td style="vertical-align:top;">:</td><td><div>HTTP/1.1</div></td></tr><tr><td style="font-weight:bold;vertical-align:top;">server_software</td><td style="vertical-align:top;">:</td><td><div>Rocket 1.2.6</div></td></tr><tr><td style="font-weight:bold;vertical-align:top;">web2py_path</td><td style="vertical-align:top;">:</td><td><div>/Users/sdv/Development/GitHub/SwedishCrown/web2py</div></td></tr><tr><td style="font-weight:bold;vertical-align:top;">web2py_version</td><td style="vertical-align:top;">:</td><td><div>2.8.2-stable+timestamp.2013.11.28.13.54.07</div></td></tr><tr><td style="font-weight:bold;vertical-align:top;">wsgi.errors</td><td style="vertical-align:top;">:</td><td><div>&lt;open file &#x27;&lt;stderr&gt;&#x27;, mode &#x27;w&#x27; at 0x1002bf1e0&gt;</div></td></tr><tr><td style="font-weight:bold;vertical-align:top;">wsgi.file_wrapper</td><td style="vertical-align:top;">:</td><td><div>&lt;class wsgiref.util.FileWrapper at 0x102046870&gt;</div></td></tr><tr><td style="font-weight:bold;vertical-align:top;">wsgi.input</td><td style="vertical-align:top;">:</td><td><div>&lt;socket._fileobject object at 0x10694f450&gt;</div></td></tr><tr><td style="font-weight:bold;vertical-align:top;">wsgi.multiprocess</td><td style="vertical-align:top;">:</td><td><div>False</div></td></tr><tr><td style="font-weight:bold;vertical-align:top;">wsgi.multithread</td><td style="vertical-align:top;">:</td><td><div>True</div></td></tr><tr><td style="font-weight:bold;vertical-align:top;">wsgi.run_once</td><td style="vertical-align:top;">:</td><td><div>False</div></td></tr><tr><td style="font-weight:bold;vertical-align:top;">wsgi.url_scheme</td><td style="vertical-align:top;">:</td><td><div>http</div></td></tr><tr><td style="font-weight:bold;vertical-align:top;">wsgi.version</td><td style="vertical-align:top;">:</td><td><div><table><tr><td><div>1</div></td></tr><tr><td><div>0</div></td></tr></table></div></td></tr><tr><td style="font-weight:bold;vertical-align:top;">wsgi_errors</td><td style="vertical-align:top;">:</td><td><div>&lt;open file &#x27;&lt;stderr&gt;&#x27;, mode &#x27;w&#x27; at 0x1002bf1e0&gt;</div></td></tr><tr><td style="font-weight:bold;vertical-align:top;">wsgi_file_wrapper</td><td style="vertical-align:top;">:</td><td><div>&lt;class wsgiref.util.FileWrapper at 0x102046870&gt;</div></td></tr><tr><td style="font-weight:bold;vertical-align:top;">wsgi_input</td><td style="vertical-align:top;">:</td><td><div>&lt;socket._fileobject object at 0x10694f450&gt;</div></td></tr><tr><td style="font-weight:bold;vertical-align:top;">wsgi_multiprocess</td><td style="vertical-align:top;">:</td><td><div>False</div></td></tr><tr><td style="font-weight:bold;vertical-align:top;">wsgi_multithread</td><td style="vertical-align:top;">:</td><td><div>True</div></td></tr><tr><td style="font-weight:bold;vertical-align:top;">wsgi_run_once</td><td style="vertical-align:top;">:</td><td><div>False</div></td></tr><tr><td style="font-weight:bold;vertical-align:top;">wsgi_url_scheme</td><td style="vertical-align:top;">:</td><td><div>http</div></td></tr><tr><td style="font-weight:bold;vertical-align:top;">wsgi_version</td><td style="vertical-align:top;">:</td><td><div><table><tr><td><div>1</div></td></tr><tr><td><div>0</div></td></tr></table></div></td></tr></table></div></td></tr><tr><td style="font-weight:bold;vertical-align:top;">extension</td><td style="vertical-align:top;">:</td><td><div>html</div></td></tr><tr><td style="font-weight:bold;vertical-align:top;">folder</td><td style="vertical-align:top;">:</td><td><div>/Users/sdv/Development/GitHub/SwedishCrown/web2py/applications/SwedishCrown/</div></td></tr><tr><td style="font-weight:bold;vertical-align:top;">function</td><td style="vertical-align:top;">:</td><td><div>index</div></td></tr><tr><td style="font-weight:bold;vertical-align:top;">global_settings</td><td style="vertical-align:top;">:</td><td><div><table><tr><td style="font-weight:bold;vertical-align:top;">app_folders</td><td style="vertical-align:top;">:</td><td><div>set([&#x27;/Users/sdv/Development/GitHub/SwedishCrown/web2py/applications/welcome/&#x27;, &#x27;/Users/sdv/Development/GitHub/SwedishCrown/web2py/applications/SwedishCrown/&#x27;])</div></td></tr><tr><td style="font-weight:bold;vertical-align:top;">applications_parent</td><td style="vertical-align:top;">:</td><td><div>/Users/sdv/Development/GitHub/SwedishCrown/web2py</div></td></tr><tr><td style="font-weight:bold;vertical-align:top;">cmd_args</td><td style="vertical-align:top;">:</td><td><div><table></table></div></td></tr><tr><td style="font-weight:bold;vertical-align:top;">cmd_options</td><td style="vertical-align:top;">:</td><td><div>&lt;Values at 0x1020b6680: {&#x27;verbose&#x27;: False, &#x27;ip&#x27;: &#x27;127.0.0.1&#x27;, &#x27;debuglevel&#x27;: 30, &#x27;with_scheduler&#x27;: False, &#x27;ips&#x27;: [&#x27;192.168.0.251&#x27;], &#x27;shutdown_timeout&#x27;: 5, &#x27;taskbar&#x27;: False, &#x27;with_coverage&#x27;: False, &#x27;port&#x27;: 8000, &#x27;maxthreads&#x27;: None, &#x27;softcron&#x27;: False, &#x27;server_name&#x27;: &#x27;macbook13-sdv.lan&#x27;, &#x27;bpython&#x27;: False, &#x27;nogui&#x27;: False, &#x27;pid_filename&#x27;: &#x27;httpserver.pid&#x27;, &#x27;extcron&#x27;: False, &#x27;runcron&#x27;: False, &#x27;run_system_tests&#x27;: False, &#x27;test&#x27;: None, &#x27;folder&#x27;: &#x27;/Users/sdv/Development/GitHub/SwedishCrown/web2py&#x27;, &#x27;config&#x27;: &#x27;&#x27;, &#x27;minthreads&#x27;: None, &#x27;shell&#x27;: None, &#x27;run&#x27;: &#x27;&#x27;, &#x27;log_filename&#x27;: &#x27;httpserver.log&#x27;, &#x27;profiler_dir&#x27;: None, &#x27;args&#x27;: [&#x27;&#x27;], &#x27;socket_timeout&#x27;: 5, &#x27;ssl_ca_certificate&#x27;: None, &#x27;scheduler&#x27;: None, &#x27;interfaces&#x27;: None, &#x27;ssl_private_key&#x27;: &#x27;&#x27;, &#x27;scheduler_groups&#x27;: None, &#x27;password&#x27;: &#x27;&lt;ask&gt;&#x27;, &#x27;request_queue_size&#x27;: 5, &#x27;ssl_certificate&#x27;: &#x27;&#x27;, &#x27;cronjob&#x27;: False, &#x27;numthreads&#x27;: None, &#x27;quiet&#x27;: False, &#x27;import_models&#x27;: False, &#x27;timeout&#x27;: 10, &#x27;plain&#x27;: False, &#x27;nobanner&#x27;: False}&gt;</div></td></tr><tr><td style="font-weight:bold;vertical-align:top;">db_sessions</td><td style="vertical-align:top;">:</td><td><div>set([])</div></td></tr><tr><td style="font-weight:bold;vertical-align:top;">debugging</td><td style="vertical-align:top;">:</td><td><div>False</div></td></tr><tr><td style="font-weight:bold;vertical-align:top;">gluon_parent</td><td style="vertical-align:top;">:</td><td><div>/Users/sdv/Development/GitHub/SwedishCrown/web2py</div></td></tr><tr><td style="font-weight:bold;vertical-align:top;">is_jython</td><td style="vertical-align:top;">:</td><td><div>False</div></td></tr><tr><td style="font-weight:bold;vertical-align:top;">is_pypy</td><td style="vertical-align:top;">:</td><td><div>False</div></td></tr><tr><td style="font-weight:bold;vertical-align:top;">is_source</td><td style="vertical-align:top;">:</td><td><div>True</div></td></tr><tr><td style="font-weight:bold;vertical-align:top;">local_hosts</td><td style="vertical-align:top;">:</td><td><div><table><tr><td><div>macbook13-sdv.lan</div></td></tr><tr><td><div>192.168.0.251</div></td></tr><tr><td><div>::1</div></td></tr><tr><td><div>::ffff:127.0.0.1</div></td></tr><tr><td><div>127.0.0.1</div></td></tr></table></div></td></tr><tr><td style="font-weight:bold;vertical-align:top;">web2py_version</td><td style="vertical-align:top;">:</td><td><div>2.8.2-stable+timestamp.2013.11.28.13.54.07</div></td></tr></table></div></td></tr><tr><td style="font-weight:bold;vertical-align:top;">is_https</td><td style="vertical-align:top;">:</td><td><div>False</div></td></tr><tr><td style="font-weight:bold;vertical-align:top;">is_local</td><td style="vertical-align:top;">:</td><td><div>True</div></td></tr><tr><td style="font-weight:bold;vertical-align:top;">is_restful</td><td style="vertical-align:top;">:</td><td><div>False</div></td></tr><tr><td style="font-weight:bold;vertical-align:top;">now</td><td style="vertical-align:top;">:</td><td><div>datetime.datetime(2013, 12, 25, 0, 46, 14, 585082)</div></td></tr><tr><td style="font-weight:bold;vertical-align:top;">raw_args</td><td style="vertical-align:top;">:</td><td><div></div></td></tr><tr><td style="font-weight:bold;vertical-align:top;">raw_extension</td><td style="vertical-align:top;">:</td><td><div>None</div></td></tr><tr><td style="font-weight:bold;vertical-align:top;">url</td><td style="vertical-align:top;">:</td><td><div>/SwedishCrown/default/index</div></td></tr><tr><td style="font-weight:bold;vertical-align:top;">utcnow</td><td style="vertical-align:top;">:</td><td><div>datetime.datetime(2013, 12, 24, 20, 46, 14, 585096)</div></td></tr><tr><td style="font-weight:bold;vertical-align:top;">uuid</td><td style="vertical-align:top;">:</td><td><div>SwedishCrown/127.0.0.1.2013-12-25.00-46-14.df0616fe-07b7-454a-add4-65ef153b8f74</div></td></tr><tr><td style="font-weight:bold;vertical-align:top;">wsgi</td><td style="vertical-align:top;">:</td><td><div>&lt;gluon.main.LazyWSGI object at 0x10695f750&gt;</div></td></tr></table></div>'
tRp58
sS'frames'
p59
(lp60
(dp61
S'file'
p62
S'/Users/sdv/Development/GitHub/SwedishCrown/web2py/gluon/restricted.py'
p63
sS'dump'
p64
(dp65
S'environment'
p66
S"{'A': <class 'gluon.html.A'>, 'ANY_OF': <class 'gluon.validators.ANY_OF'>, 'Auth': <class 'gluon.tools.Auth'>, 'B': <class 'gluon.html.B'>, 'BEAUTIFY': <class 'gluon.html.BEAUTIFY'>, 'BODY': <class 'gluon.html.BODY'>, 'BR': <class 'gluon.html.BR'>, 'BUTTON': <class 'gluon.html.BUTTON'>, 'CAT': <class 'gluon.html.CAT'>, 'CENTER': <class 'gluon.html.CENTER'>, ...}"
p67
sS'ccode'
p68
S'<code object <module> at 0x1069563b0, file "/Use...pplications/SwedishCrown/models/menu.py", line 8>'
p69
ssS'lnum'
p70
I217
sS'lines'
p71
(dp72
I212
S'    try:'
p73
sI213
S'        if isinstance(code, types.CodeType):'
p74
sI214
S'            ccode = code'
p75
sI215
S'        else:'
p76
sI216
S'            ccode = compile2(code, layer)'
p77
sI217
S'        exec ccode in environment'
p78
sI218
S'    except HTTP:'
p79
sI219
S'        raise'
p80
sI220
S'    except RestrictedError:'
p81
sI221
S'        # do not encapsulate (obfuscate) the original RestrictedError'
p82
ssS'call'
p83
S'(code=\'# -*- coding: utf-8 -*-\\n# this file is released ...   ]\\n\\n\\n\\n# if "auth" in locals(): auth.wikimenu()\\n\', environment={\'A\': <class \'gluon.html.A\'>, \'ANY_OF\': <class \'gluon.validators.ANY_OF\'>, \'Auth\': <class \'gluon.tools.Auth\'>, \'B\': <class \'gluon.html.B\'>, \'BEAUTIFY\': <class \'gluon.html.BEAUTIFY\'>, \'BODY\': <class \'gluon.html.BODY\'>, \'BR\': <class \'gluon.html.BR\'>, \'BUTTON\': <class \'gluon.html.BUTTON\'>, \'CAT\': <class \'gluon.html.CAT\'>, \'CENTER\': <class \'gluon.html.CENTER\'>, ...}, layer=\'/Users/sdv/Development/GitHub/SwedishCrown/web2py/applications/SwedishCrown/models/menu.py\')'
p84
sS'func'
p85
S'restricted'
p86
sa(dp87
g62
S'/Users/sdv/Development/GitHub/SwedishCrown/web2py/applications/SwedishCrown/models/menu.py'
p88
sg64
(dp89
S'URL'
p90
S'<function URL>'
p91
sS'_class'
p92
S'undefined'
p93
sS'T'
S'<gluon.languages.translator object>'
p94
sS'builtinFalse'
p95
S'False'
p96
ssg70
I39
sg71
(dp97
I34
S'    ]),'
p98
sI35
S"    # (T('News'), False, URL('default', 'news'), []),"
p99
sI36
S"    # (T('FAQ'), False, URL('default', 'faq'), []),"
p100
sI37
S"    (T('Forum'), False, URL('default','forum'), []),"
p101
sI38
S"    # (T('Links'), False, URL('default', 'links'), []),"
p102
sI39
S"    (T('Personal page'), False, URL('profile','personal_page'),_class+'test'),"
p103
sI40
S''
sI41
S']'
sI42
S''
sI43
S'# if auth.is_logged_in():'
p104
ssg83
S'()'
p105
sg85
S'<module>'
p106
sasS'pyver'
p107
S'Python 2.7.5: /Library/Frameworks/Python.framework/Versions/2.7/Resources/Python.app/Contents/MacOS/Python (prefix: /Library/Frameworks/Python.framework/Versions/2.7)'
p108
sS'session'
p109
g57
(S's\xf7\x08\x00\x00<div><table><tr><td style="font-weight:bold;vertical-align:top;">auth</td><td style="vertical-align:top;">:</td><td><div><table><tr><td style="font-weight:bold;vertical-align:top;">expiration</td><td style="vertical-align:top;">:</td><td><div>3600</div></td></tr><tr><td style="font-weight:bold;vertical-align:top;">hmac_key</td><td style="vertical-align:top;">:</td><td><div>8c014664-5c55-4002-922d-b67c3a1569e0</div></td></tr><tr><td style="font-weight:bold;vertical-align:top;">last_visit</td><td style="vertical-align:top;">:</td><td><div>datetime.datetime(2013, 12, 25, 0, 46, 14, 585082)</div></td></tr><tr><td style="font-weight:bold;vertical-align:top;">remember</td><td style="vertical-align:top;">:</td><td><div>False</div></td></tr><tr><td style="font-weight:bold;vertical-align:top;">user</td><td style="vertical-align:top;">:</td><td><div><table><tr><td style="font-weight:bold;vertical-align:top;">email</td><td style="vertical-align:top;">:</td><td><div>sdvinfo@gmail.com</div></td></tr><tr><td style="font-weight:bold;vertical-align:top;">first_name</td><td style="vertical-align:top;">:</td><td><div>\xd0\x94\xd0\xbc\xd0\xb8\xd1\x82\xd1\x80\xd0\xb8\xd0\xb9</div></td></tr><tr><td style="font-weight:bold;vertical-align:top;">id</td><td style="vertical-align:top;">:</td><td><div>1L</div></td></tr><tr><td style="font-weight:bold;vertical-align:top;">last_name</td><td style="vertical-align:top;">:</td><td><div>\xd0\xa1\xd0\xb5\xd1\x80\xd0\xb5\xd0\xb6\xd0\xb8\xd0\xbd</div></td></tr><tr><td style="font-weight:bold;vertical-align:top;">registration_id</td><td style="vertical-align:top;">:</td><td><div></div></td></tr><tr><td style="font-weight:bold;vertical-align:top;">registration_key</td><td style="vertical-align:top;">:</td><td><div></div></td></tr><tr><td style="font-weight:bold;vertical-align:top;">reset_password_key</td><td style="vertical-align:top;">:</td><td><div></div></td></tr></table></div></td></tr><tr><td style="font-weight:bold;vertical-align:top;">user_groups</td><td style="vertical-align:top;">:</td><td><div><table><tr><td style="font-weight:bold;vertical-align:top;">1</td><td style="vertical-align:top;">:</td><td><div>user_1</div></td></tr></table></div></td></tr></table></div></td></tr><tr><td style="font-weight:bold;vertical-align:top;">flash</td><td style="vertical-align:top;">:</td><td><div>None</div></td></tr></table></div>'
tRp110
sS'etype'
p111
S"<type 'exceptions.NameError'>"
p112
sS'date'
p113
S'Wed Dec 25 00:46:14 2013'
p114
sS'response'
p115
g57
(S's]\x1c\x00\x00<div><table><tr><td style="font-weight:bold;vertical-align:top;">body</td><td style="vertical-align:top;">:</td><td><div>&lt;cStringIO.StringO object at 0x106950228&gt;</div></td></tr><tr><td style="font-weight:bold;vertical-align:top;">cookies</td><td style="vertical-align:top;">:</td><td><div><table><tr><td style="font-weight:bold;vertical-align:top;">session_id_swedishcrown</td><td style="vertical-align:top;">:</td><td><div>127.0.0.1-08766544-16ba-49b2-bf13-d6166817b3d8<table><tr><td style="font-weight:bold;vertical-align:top;">comment</td><td style="vertical-align:top;">:</td><td><div></div></td></tr><tr><td style="font-weight:bold;vertical-align:top;">domain</td><td style="vertical-align:top;">:</td><td><div></div></td></tr><tr><td style="font-weight:bold;vertical-align:top;">expires</td><td style="vertical-align:top;">:</td><td><div></div></td></tr><tr><td style="font-weight:bold;vertical-align:top;">httponly</td><td style="vertical-align:top;">:</td><td><div></div></td></tr><tr><td style="font-weight:bold;vertical-align:top;">max-age</td><td style="vertical-align:top;">:</td><td><div></div></td></tr><tr><td style="font-weight:bold;vertical-align:top;">path</td><td style="vertical-align:top;">:</td><td><div>/</div></td></tr><tr><td style="font-weight:bold;vertical-align:top;">secure</td><td style="vertical-align:top;">:</td><td><div></div></td></tr><tr><td style="font-weight:bold;vertical-align:top;">version</td><td style="vertical-align:top;">:</td><td><div></div></td></tr></table></div></td></tr></table></div></td></tr><tr><td style="font-weight:bold;vertical-align:top;">delimiters</td><td style="vertical-align:top;">:</td><td><div><table><tr><td><div>{{</div></td></tr><tr><td><div>}}</div></td></tr></table></div></td></tr><tr><td style="font-weight:bold;vertical-align:top;">files</td><td style="vertical-align:top;">:</td><td><div><table></table></div></td></tr><tr><td style="font-weight:bold;vertical-align:top;">flash</td><td style="vertical-align:top;">:</td><td><div></div></td></tr><tr><td style="font-weight:bold;vertical-align:top;">generic_patterns</td><td style="vertical-align:top;">:</td><td><div><table><tr><td><div>*</div></td></tr></table></div></td></tr><tr><td style="font-weight:bold;vertical-align:top;">google_analytics_id</td><td style="vertical-align:top;">:</td><td><div>None</div></td></tr><tr><td style="font-weight:bold;vertical-align:top;">headers</td><td style="vertical-align:top;">:</td><td><div><table><tr><td style="font-weight:bold;vertical-align:top;">X-Powered-By</td><td style="vertical-align:top;">:</td><td><div>web2py</div></td></tr></table></div></td></tr><tr><td style="font-weight:bold;vertical-align:top;">logo</td><td style="vertical-align:top;">:</td><td><div><a class="brand" data-w2p_disable_with="default" href="/SwedishCrown/default/index"><b><span>S</span>wedish<span>C</span>rown <span>CMS</span></b>&trade;&nbsp;</a></div></td></tr><tr><td style="font-weight:bold;vertical-align:top;">menu</td><td style="vertical-align:top;">:</td><td><div><table></table></div></td></tr><tr><td style="font-weight:bold;vertical-align:top;">meta</td><td style="vertical-align:top;">:</td><td><div><table><tr><td style="font-weight:bold;vertical-align:top;">author</td><td style="vertical-align:top;">:</td><td><div>Dmitriy Serezhin &lt;sdvinfo@gmail.com&gt;</div></td></tr><tr><td style="font-weight:bold;vertical-align:top;">description</td><td style="vertical-align:top;">:</td><td><div>CMS for homeowners association Swedish Crown</div></td></tr><tr><td style="font-weight:bold;vertical-align:top;">generator</td><td style="vertical-align:top;">:</td><td><div>Web2py Web Framework</div></td></tr><tr><td style="font-weight:bold;vertical-align:top;">keywords</td><td style="vertical-align:top;">:</td><td><div>\xd0\xa2\xd0\xa1\xd0\x96, CMS, \xd0\x96\xd0\x9a\xd0\xa5</div></td></tr></table></div></td></tr><tr><td style="font-weight:bold;vertical-align:top;">models_to_run</td><td style="vertical-align:top;">:</td><td><div><table><tr><td><div>^\\w+\\.py$</div></td></tr><tr><td><div>^default/\\w+\\.py$</div></td></tr><tr><td><div>^default/index/\\w+\\.py$</div></td></tr></table></div></td></tr><tr><td style="font-weight:bold;vertical-align:top;">postprocessing</td><td style="vertical-align:top;">:</td><td><div><table></table></div></td></tr><tr><td style="font-weight:bold;vertical-align:top;">session_client</td><td style="vertical-align:top;">:</td><td><div>127.0.0.1</div></td></tr><tr><td style="font-weight:bold;vertical-align:top;">session_cookie_compression_level</td><td style="vertical-align:top;">:</td><td><div>None</div></td></tr><tr><td style="font-weight:bold;vertical-align:top;">session_cookie_expires</td><td style="vertical-align:top;">:</td><td><div>None</div></td></tr><tr><td style="font-weight:bold;vertical-align:top;">session_cookie_key</td><td style="vertical-align:top;">:</td><td><div>None</div></td></tr><tr><td style="font-weight:bold;vertical-align:top;">session_data_name</td><td style="vertical-align:top;">:</td><td><div>session_data_swedishcrown</div></td></tr><tr><td style="font-weight:bold;vertical-align:top;">session_file</td><td style="vertical-align:top;">:</td><td><div>&lt;open file &#x27;/Users/sdv/Development/GitHub/SwedishCrown/web2py/applications/SwedishCrown/sessions/127.0.0.1-08766544-16ba-49b2-bf13-d6166817b3d8&#x27;, mode &#x27;rb+&#x27; at 0x1020b7300&gt;</div></td></tr><tr><td style="font-weight:bold;vertical-align:top;">session_filename</td><td style="vertical-align:top;">:</td><td><div>/Users/sdv/Development/GitHub/SwedishCrown/web2py/applications/SwedishCrown/sessions/127.0.0.1-08766544-16ba-49b2-bf13-d6166817b3d8</div></td></tr><tr><td style="font-weight:bold;vertical-align:top;">session_hash</td><td style="vertical-align:top;">:</td><td><div>19526a8f34a163030481cfc6b3ae6b6b</div></td></tr><tr><td style="font-weight:bold;vertical-align:top;">session_id</td><td style="vertical-align:top;">:</td><td><div>127.0.0.1-08766544-16ba-49b2-bf13-d6166817b3d8</div></td></tr><tr><td style="font-weight:bold;vertical-align:top;">session_id_name</td><td style="vertical-align:top;">:</td><td><div>session_id_swedishcrown</div></td></tr><tr><td style="font-weight:bold;vertical-align:top;">session_locked</td><td style="vertical-align:top;">:</td><td><div>True</div></td></tr><tr><td style="font-weight:bold;vertical-align:top;">session_masterapp</td><td style="vertical-align:top;">:</td><td><div>SwedishCrown</div></td></tr><tr><td style="font-weight:bold;vertical-align:top;">session_new</td><td style="vertical-align:top;">:</td><td><div>False</div></td></tr><tr><td style="font-weight:bold;vertical-align:top;">session_storage_type</td><td style="vertical-align:top;">:</td><td><div>file</div></td></tr><tr><td style="font-weight:bold;vertical-align:top;">status</td><td style="vertical-align:top;">:</td><td><div>200</div></td></tr><tr><td style="font-weight:bold;vertical-align:top;">subtitle</td><td style="vertical-align:top;">:</td><td><div></div></td></tr><tr><td style="font-weight:bold;vertical-align:top;">title</td><td style="vertical-align:top;">:</td><td><div>Swedishcrown</div></td></tr><tr><td style="font-weight:bold;vertical-align:top;">view</td><td style="vertical-align:top;">:</td><td><div>default/index.html</div></td></tr></table></div>'
tRp116
sS'locals'
p117
(dp118
S'Service'
p119
S"<class 'gluon.tools.Service'>"
p120
sS'OBJECT'
p121
S"<class 'gluon.html.OBJECT'>"
p122
sS'SQLDB'
p123
S"<class 'gluon.dal.DAL'>"
p124
sg109
S"<Storage {'_formkey[register]': ['c4094eac-86e4-...b645f', '645c6a12-7568-455a-a299-a23052c40313']}>"
p125
sS'LINK'
p126
S"<class 'gluon.html.LINK'>"
p127
sS'BR'
p128
S"<class 'gluon.html.BR'>"
p129
sS'local_import'
p130
S'<function <lambda>>'
p131
sS'OPTGROUP'
p132
S"<class 'gluon.html.OPTGROUP'>"
p133
sS'LI'
p134
S"<class 'gluon.html.LI'>"
p135
sS'PRE'
p136
S"<class 'gluon.html.PRE'>"
p137
sS'IS_INT_IN_RANGE'
p138
S"<class 'gluon.validators.IS_INT_IN_RANGE'>"
p139
sS'IS_LOWER'
p140
S"<class 'gluon.validators.IS_LOWER'>"
p141
sS'IS_STRONG'
p142
S"<class 'gluon.validators.IS_STRONG'>"
p143
sS'cache'
p144
S'<gluon.cache.Cache object>'
p145
sS'IS_IN_DB'
p146
S"<class 'gluon.validators.IS_IN_DB'>"
p147
sS'TAG'
p148
S'<gluon.html.__TAG__ object>'
p149
sS'SQLField'
p150
S"<class 'gluon.dal.Field'>"
p151
sS'mail'
p152
S'<gluon.tools.Mail object>'
p153
sS'BODY'
p154
S"<class 'gluon.html.BODY'>"
p155
sS'IS_DATE_IN_RANGE'
p156
S"<class 'gluon.validators.IS_DATE_IN_RANGE'>"
p157
sS'TH'
p158
S"<class 'gluon.html.TH'>"
p159
sS'URL'
p160
S'<function URL>'
p161
sS'__file__'
p162
S"'/Users/sdv/Development/GitHub/SwedishCrown/web2py/applications/SwedishCrown/models/menu.py'"
p163
sS'db'
p164
S'<DAL uri="sqlite://storage.sqlite">'
p165
sS'auth'
p166
S'<gluon.tools.Auth object>'
p167
sS'P'
S"<class 'gluon.html.P'>"
p168
sS'TFOOT'
p169
S"<class 'gluon.html.TFOOT'>"
p170
sS'XHTML'
p171
S"<class 'gluon.html.XHTML'>"
p172
sS'ON'
p173
S'True'
p174
sS'OL'
p175
S"<class 'gluon.html.OL'>"
p176
sS'TEXTAREA'
p177
S"<class 'gluon.html.TEXTAREA'>"
p178
sS'MENU'
p179
S"<class 'gluon.html.MENU'>"
p180
sS'LOAD'
p181
S'<function LOAD>'
p182
sS'CODE'
p183
S"<class 'gluon.html.CODE'>"
p184
sS'HTTP'
p185
S"<class 'gluon.http.HTTP'>"
p186
sS'HR'
p187
S"<class 'gluon.html.HR'>"
p188
sS'IS_DATETIME'
p189
S"<class 'gluon.validators.IS_DATETIME'>"
p190
sS'HEAD'
p191
S"<class 'gluon.html.HEAD'>"
p192
sS'LABEL'
p193
S"<class 'gluon.html.LABEL'>"
p194
sS'CLEANUP'
p195
S"<class 'gluon.validators.CLEANUP'>"
p196
sS'plugins'
p197
S'<gluon.tools.PluginManager object>'
p198
sS'SELECT'
p199
S"<class 'gluon.html.SELECT'>"
p200
sS'use_janrain'
p201
S'<function use_janrain>'
p202
sS'CENTER'
p203
S"<class 'gluon.html.CENTER'>"
p204
sS'prettydate'
p205
S'<function prettydate>'
p206
sS'Crud'
p207
S"<class 'gluon.tools.Crud'>"
p208
sS'Auth'
p209
S"<class 'gluon.tools.Auth'>"
p210
sS'__builtins__'
p211
S"{'ArithmeticError': <type 'exceptions.ArithmeticError'>, 'AssertionError': <type 'exceptions.AssertionError'>, 'AttributeError': <type 'exceptions.AttributeError'>, 'BaseException': <type 'exceptions.BaseException'>, 'BufferError': <type 'exceptions.BufferError'>, 'BytesWarning': <type 'exceptions.BytesWarning'>, 'DeprecationWarning': <type 'exceptions.DeprecationWarning'>, 'EOFError': <type 'exceptions.EOFError'>, 'Ellipsis': Ellipsis, 'EnvironmentError': <type 'exceptions.EnvironmentError'>, ...}"
p212
sS'HTML'
p213
S"<class 'gluon.html.HTML'>"
p214
sS'SQLFORM'
p215
S"<class 'gluon.sqlhtml.SQLFORM'>"
p216
sS'EM'
p217
S"<class 'gluon.html.EM'>"
p218
sS'redirect'
p219
S'<function redirect>'
p220
sS'FIELDSET'
p221
S"<class 'gluon.html.FIELDSET'>"
p222
sS'IS_EQUAL_TO'
p223
S"<class 'gluon.validators.IS_EQUAL_TO'>"
p224
sS'embed64'
p225
S'<function embed64>'
p226
sS'IS_LIST_OF'
p227
S"<class 'gluon.validators.IS_LIST_OF'>"
p228
sS'__name__'
p229
S"'__restricted__'"
p230
sS'EMBED'
p231
S"<class 'gluon.html.EMBED'>"
p232
sS'FORM'
p233
S"<class 'gluon.html.FORM'>"
p234
sS'H2'
p235
S"<class 'gluon.html.H2'>"
p236
sS'H3'
p237
S"<class 'gluon.html.H3'>"
p238
sS'BUTTON'
p239
S"<class 'gluon.html.BUTTON'>"
p240
sS'H1'
p241
S"<class 'gluon.html.H1'>"
p242
sS'H6'
p243
S"<class 'gluon.html.H6'>"
p244
sS'H4'
p245
S"<class 'gluon.html.H4'>"
p246
sS'H5'
p247
S"<class 'gluon.html.H5'>"
p248
sS'UL'
p249
S"<class 'gluon.html.UL'>"
p250
sS'IS_UPPER'
p251
S"<class 'gluon.validators.IS_UPPER'>"
p252
sS'xmlescape'
p253
S'<function xmlescape>'
p254
sS'IS_TIME'
p255
S"<class 'gluon.validators.IS_TIME'>"
p256
sS'OPTION'
p257
S"<class 'gluon.html.OPTION'>"
p258
sS'TITLE'
p259
S"<class 'gluon.html.TITLE'>"
p260
sS'CRYPT'
p261
S"<class 'gluon.validators.CRYPT'>"
p262
sS'IS_EMPTY_OR'
p263
S"<class 'gluon.validators.IS_EMPTY_OR'>"
p264
sS'MARKMIN'
p265
S"<class 'gluon.html.MARKMIN'>"
p266
sS'INPUT'
p267
S"<class 'gluon.html.INPUT'>"
p268
sS'STRONG'
p269
S"<class 'gluon.html.STRONG'>"
p270
sS'COL'
p271
S"<class 'gluon.html.COL'>"
p272
sS'service'
p273
S'<gluon.tools.Service object>'
p274
sS'SCRIPT'
p275
S"<class 'gluon.html.SCRIPT'>"
p276
sS'TABLE'
p277
S"<class 'gluon.html.TABLE'>"
p278
sS'IS_IPV4'
p279
S"<class 'gluon.validators.IS_IPV4'>"
p280
sS'IS_LENGTH'
p281
S"<class 'gluon.validators.IS_LENGTH'>"
p282
sS'IS_IPV6'
p283
S"<class 'gluon.validators.IS_IPV6'>"
p284
sS'XML'
p285
S"<class 'gluon.html.XML'>"
p286
sS'B'
S"<class 'gluon.html.B'>"
p287
sS'IMG'
p288
S"<class 'gluon.html.IMG'>"
p289
sS'SQLTABLE'
p290
S"<class 'gluon.sqlhtml.SQLTABLE'>"
p291
sS'IS_MATCH'
p292
S"<class 'gluon.validators.IS_MATCH'>"
p293
sS'IS_ALPHANUMERIC'
p294
S"<class 'gluon.validators.IS_ALPHANUMERIC'>"
p295
sS'SPAN'
p296
S"<class 'gluon.html.SPAN'>"
p297
sS'IS_JSON'
p298
S"<class 'gluon.validators.IS_JSON'>"
p299
sS'IS_IPADDRESS'
p300
S"<class 'gluon.validators.IS_IPADDRESS'>"
p301
sS'IS_SLUG'
p302
S"<class 'gluon.validators.IS_SLUG'>"
p303
sS'BEAUTIFY'
p304
S"<class 'gluon.html.BEAUTIFY'>"
p305
sS'META'
p306
S"<class 'gluon.html.META'>"
p307
sS'IS_DATE'
p308
S"<class 'gluon.validators.IS_DATE'>"
p309
sS'IS_EMAIL'
p310
S"<class 'gluon.validators.IS_EMAIL'>"
p311
sS'IS_NOT_EMPTY'
p312
S"<class 'gluon.validators.IS_NOT_EMPTY'>"
p313
sS'IS_FLOAT_IN_RANGE'
p314
S"<class 'gluon.validators.IS_FLOAT_IN_RANGE'>"
p315
sS'TBODY'
p316
S"<class 'gluon.html.TBODY'>"
p317
sS'CAT'
p318
S"<class 'gluon.html.CAT'>"
p319
sS'Field'
p320
S"<class 'gluon.dal.Field'>"
p321
sS'IS_LIST_OF_EMAILS'
p322
S"<class 'gluon.validators.IS_LIST_OF_EMAILS'>"
p323
sS'DIV'
p324
S"<class 'gluon.html.DIV'>"
p325
sS'LEGEND'
p326
S"<class 'gluon.html.LEGEND'>"
p327
sS'COLGROUP'
p328
S"<class 'gluon.html.COLGROUP'>"
p329
sS'DAL'
p330
S"<class 'gluon.dal.DAL'>"
p331
sS'TT'
p332
S"<class 'gluon.html.TT'>"
p333
sS'TR'
p334
S"<class 'gluon.html.TR'>"
p335
sS'__package__'
p336
S'None'
p337
sS'IFRAME'
p338
S"<class 'gluon.html.IFRAME'>"
p339
sS'TD'
p340
S"<class 'gluon.html.TD'>"
p341
sS'PluginManager'
p342
S"<class 'gluon.tools.PluginManager'>"
p343
sS'IS_URL'
p344
S"<class 'gluon.validators.IS_URL'>"
p345
sS'A'
S"<class 'gluon.html.A'>"
p346
sS'STYLE'
p347
S"<class 'gluon.html.STYLE'>"
p348
sS'IS_DATETIME_IN_RANGE'
p349
S"<class 'gluon.validators.IS_DATETIME_IN_RANGE'>"
p350
sS'IS_IMAGE'
p351
S"<class 'gluon.validators.IS_IMAGE'>"
p352
sS'I'
S"<class 'gluon.html.I'>"
p353
sS'crud'
p354
S'<gluon.tools.Crud object>'
p355
sS'IS_NOT_IN_DB'
p356
S"<class 'gluon.validators.IS_NOT_IN_DB'>"
p357
sg115
S"<Storage {'body': <cStringIO.StringO object at 0...> at 0x106951578>, 'view': 'default/index.html'}>"
p358
sS'THEAD'
p359
S"<class 'gluon.html.THEAD'>"
p360
sS'ANY_OF'
p361
S"<class 'gluon.validators.ANY_OF'>"
p362
sS'IS_NULL_OR'
p363
S"<class 'gluon.validators.IS_EMPTY_OR'>"
p364
sg56
S"<Storage {'_vars': None, 'function': 'index', 'c...SwedishCrown/web2py/applications/SwedishCrown/'}>"
p365
sS'IS_EXPR'
p366
S"<class 'gluon.validators.IS_EXPR'>"
p367
sS'IS_IN_SET'
p368
S"<class 'gluon.validators.IS_IN_SET'>"
p369
sS'IS_UPLOAD_FILENAME'
p370
S"<class 'gluon.validators.IS_UPLOAD_FILENAME'>"
p371
sS'IS_DECIMAL_IN_RANGE'
p372
S"<class 'gluon.validators.IS_DECIMAL_IN_RANGE'>"
p373
sS'T'
S'<gluon.languages.translator object>'
p374
sssS'traceback'
p375
S'Traceback (most recent call last):\n  File "/Users/sdv/Development/GitHub/SwedishCrown/web2py/gluon/restricted.py", line 217, in restricted\n    exec ccode in environment\n  File "/Users/sdv/Development/GitHub/SwedishCrown/web2py/applications/SwedishCrown/models/menu.py", line 39, in <module>\n    (T(\'Personal page\'), False, URL(\'profile\',\'personal_page\'),_class+\'test\'),\nNameError: name \'_class\' is not defined\n'
p376
s.